target datalayout = "e-m:e-p270:32:32-p271:32:32-p272:64:64-i64:64-i128:128-f80:128-n8:16:32:64-S128"
target triple = "x86_64-pc-linux-gnu"

; Function Attrs: nounwind uwtable
define internal i32 @round_shift(i64 noundef %0, i32 noundef %1) #0 {
  %3 = alloca i64, align 8
  %4 = alloca i32, align 4
  store i64 %0, ptr %3, align 8
  store i32 %1, ptr %4, align 4
  %5 = load i64, ptr %3, align 8
  %6 = load i32, ptr %4, align 4
  %7 = sub nsw i32 %6, 1
  %8 = zext i32 %7 to i64
  %9 = shl i64 1, %8
  %10 = add nsw i64 %5, %9
  %11 = load i32, ptr %4, align 4
  %12 = zext i32 %11 to i64
  %13 = ashr i64 %10, %12
  %14 = trunc i64 %13 to i32
  ret i32 %14
}

; Function Attrs: nounwind uwtable
define hidden void @av1_iidentity16_c(ptr noundef %0, ptr noundef %1, i8 noundef signext %2, ptr noundef %3) #0 {
  %5 = alloca ptr, align 8
  %6 = alloca ptr, align 8
  %7 = alloca i8, align 1
  %8 = alloca ptr, align 8
  %9 = alloca i32, align 4
  store ptr %0, ptr %5, align 8
  store ptr %1, ptr %6, align 8
  store i8 %2, ptr %7, align 1
  store ptr %3, ptr %8, align 8
  store i32 0, ptr %9, align 4
  br label %10

10:                                               ; preds = %26, %4
  %11 = load i32, ptr %9, align 4
  %12 = icmp slt i32 %11, 16
  br i1 %12, label %13, label %29

13:                                               ; preds = %10
  %14 = load ptr, ptr %5, align 8
  %15 = load i32, ptr %9, align 4
  %16 = sext i32 %15 to i64
  %17 = getelementptr inbounds i32, ptr %14, i64 %16
  %18 = load i32, ptr %17, align 4
  %19 = sext i32 %18 to i64
  %20 = mul nsw i64 11586, %19
  %21 = call i32 @round_shift(i64 noundef %20, i32 noundef 12)
  %22 = load ptr, ptr %6, align 8
  %23 = load i32, ptr %9, align 4
  %24 = sext i32 %23 to i64
  %25 = getelementptr inbounds i32, ptr %22, i64 %24
  store i32 %21, ptr %25, align 4
  br label %26

26:                                               ; preds = %13
  %27 = load i32, ptr %9, align 4
  %28 = add nsw i32 %27, 1
  store i32 %28, ptr %9, align 4
  br label %10, !llvm.loop !7

29:                                               ; preds = %10
  ret void
}